target datalayout = "e-m:e-p270:32:32-p271:32:32-p272:64:64-i64:64-i128:128-f80:128-n8:16:32:64-S128"
target triple = "x86_64-pc-linux-gnu"

%class.JfrRecorderService = type { ptr, ptr, ptr, ptr, ptr, ptr }
%class.Thread = type { %class.ThreadShadow.base, i64, [43 x i64], ptr, ptr, i32, ptr, i64, i64, %class.ThreadLocalAllocBuffer, i64, %class.ThreadHeapSampler, %class.ThreadStatisticalInfo, %class.JfrThreadLocal, ptr, ptr, ptr, ptr, ptr, ptr, i64, i32, i32, ptr, i32, i32, i32, i32, i8, ptr }
%class.ThreadShadow.base = type <{ ptr, ptr, ptr, i32 }>
%class.ThreadLocalAllocBuffer = type <{ ptr, ptr, ptr, ptr, ptr, i64, i64, i64, i64, i32, i32, i32, i32, i64, %class.AdaptiveWeightedAverage, [4 x i8] }>
%class.AdaptiveWeightedAverage = type { float, i32, i32, i8, float }
%class.ThreadHeapSampler = type { i64 }
%class.ThreadStatisticalInfo = type { i64, i64 }
%class.JfrThreadLocal = type <{ ptr, ptr, ptr, ptr, ptr, ptr, ptr, ptr, ptr, ptr, %class.RefCountHandle, i64, i64, i64, i64, i64, i64, i64, i64, i64, i64, i64, i32, i32, i32, i16, i8, i8, i8, i8, i8, [5 x i8] }>
%class.RefCountHandle = type { ptr }
%class.StreamWriterHost = type <{ %class.MemoryWriterHost, i64, i32, [4 x i8] }>
%class.MemoryWriterHost = type { %class.StorageHost }
%class.StorageHost = type { %class.Position, %class.MallocAdapter }
%class.Position = type { ptr, ptr, ptr }
%class.MallocAdapter = type <{ ptr, ptr, ptr, i64, i8, [7 x i8] }>

@_ZN6Thread12_thr_currentE = external thread_local global ptr, align 8

; Function Attrs: mustprogress nounwind uwtable
define linkonce_odr hidden noundef ptr @_ZN6Thread15current_or_nullEv() #1 comdat align 2 {
  %1 = call align 8 ptr @llvm.threadlocal.address.p0(ptr align 8 @_ZN6Thread12_thr_currentE)
  %2 = load ptr, ptr %1, align 8
  ret ptr %2
}

; Function Attrs: mustprogress nounwind uwtable
define linkonce_odr hidden noundef zeroext i1 @_ZNK16StreamWriterHostI13MallocAdapterILm1048576EE11JfrCHeapObjE12has_valid_fdEv(ptr noundef nonnull align 8 dereferenceable(76) %0) #1 comdat align 2 {
  %2 = alloca ptr, align 8
  store ptr %0, ptr %2, align 8
  %3 = load ptr, ptr %2, align 8
  %4 = getelementptr inbounds %class.StreamWriterHost, ptr %3, i32 0, i32 2
  %5 = load i32, ptr %4, align 8
  %6 = icmp ne i32 -1, %5
  ret i1 %6
}

; Function Attrs: mustprogress nounwind uwtable
define linkonce_odr hidden noundef ptr @_ZNK14JfrThreadLocal13native_bufferEv(ptr noundef nonnull align 8 dereferenceable(195) %0) #1 comdat align 2 {
  %2 = alloca ptr, align 8
  store ptr %0, ptr %2, align 8
  %3 = load ptr, ptr %2, align 8
  %4 = getelementptr inbounds %class.JfrThreadLocal, ptr %3, i32 0, i32 2
  %5 = load ptr, ptr %4, align 8
  %6 = icmp ne ptr %5, null
  br i1 %6, label %7, label %10

7:                                                ; preds = %1
  %8 = getelementptr inbounds %class.JfrThreadLocal, ptr %3, i32 0, i32 2
  %9 = load ptr, ptr %8, align 8
  br label %12

10:                                               ; preds = %1
  %11 = call noundef ptr @_ZNK14JfrThreadLocal21install_native_bufferEv(ptr noundef nonnull align 8 dereferenceable(195) %3)
  br label %12

12:                                               ; preds = %10, %7
  %13 = phi ptr [ %9, %7 ], [ %11, %10 ]
  ret ptr %13
}

; Function Attrs: mustprogress nounwind uwtable
define linkonce_odr hidden noundef ptr @_ZNK6Thread16jfr_thread_localEv(ptr noundef nonnull align 8 dereferenceable(888) %0) #1 comdat align 2 {
  %2 = alloca ptr, align 8
  store ptr %0, ptr %2, align 8
  %3 = load ptr, ptr %2, align 8
  %4 = getelementptr inbounds %class.Thread, ptr %3, i32 0, i32 13
  ret ptr %4
}

; Function Attrs: mustprogress nounwind uwtable
define linkonce_odr hidden noundef ptr @_ZN6Thread7currentEv() #1 comdat align 2 {
  %1 = alloca ptr, align 8
  %2 = call noundef ptr @_ZN6Thread15current_or_nullEv()
  store ptr %2, ptr %1, align 8
  %3 = load ptr, ptr %1, align 8
  ret ptr %3
}

; Function Attrs: mustprogress nounwind uwtable
define hidden void @_ZN18JfrRecorderService14open_new_chunkEb(ptr noundef nonnull align 8 dereferenceable(48) %0, i1 noundef zeroext %1) #1 align 2 {
  %3 = alloca ptr, align 8
  %4 = alloca i8, align 1
  %5 = alloca i8, align 1
  store ptr %0, ptr %3, align 8
  %6 = zext i1 %1 to i8
  store i8 %6, ptr %4, align 1
  %7 = load ptr, ptr %3, align 8
  call void @_ZN16JfrChunkRotation11on_rotationEv()
  %8 = getelementptr inbounds %class.JfrRecorderService, ptr %7, i32 0, i32 2
  %9 = load ptr, ptr %8, align 8
  %10 = load i8, ptr %4, align 1
  %11 = trunc i8 %10 to i1
  %12 = call noundef zeroext i1 @_ZN13JfrRepository10open_chunkEb(ptr noundef nonnull align 8 dereferenceable(16) %9, i1 noundef zeroext %11)
  %13 = zext i1 %12 to i8
  store i8 %13, ptr %5, align 1
  %14 = call noundef nonnull align 8 dereferenceable(49) ptr @_ZN10JfrStorage7controlEv()
  %15 = load i8, ptr %5, align 1
  %16 = trunc i8 %15 to i1
  call void @_ZN17JfrStorageControl11set_to_diskEb(ptr noundef nonnull align 8 dereferenceable(49) %14, i1 noundef zeroext %16)
  %17 = load i8, ptr %5, align 1
  %18 = trunc i8 %17 to i1
  br i1 %18, label %19, label %23

19:                                               ; preds = %2
  %20 = getelementptr inbounds %class.JfrRecorderService, ptr %7, i32 0, i32 0
  %21 = load ptr, ptr %20, align 8
  %22 = call noundef i64 @_ZN20JfrCheckpointManager33write_static_type_set_and_threadsEv(ptr noundef nonnull align 8 dereferenceable(32) %21)
  br label %23

23:                                               ; preds = %19, %2
  ret void
}

; Function Attrs: mustprogress nounwind uwtable
define linkonce_odr hidden noundef zeroext i1 @_ZNK16StreamWriterHostI13MallocAdapterILm1048576EE11JfrCHeapObjE8is_validEv(ptr noundef nonnull align 8 dereferenceable(76) %0) #1 comdat align 2 {
  %2 = alloca ptr, align 8
  store ptr %0, ptr %2, align 8
  %3 = load ptr, ptr %2, align 8
  %4 = call noundef zeroext i1 @_ZNK16StreamWriterHostI13MallocAdapterILm1048576EE11JfrCHeapObjE12has_valid_fdEv(ptr noundef nonnull align 8 dereferenceable(76) %3)
  ret i1 %4
}

; Function Attrs: mustprogress nounwind uwtable
define hidden void @_ZN18JfrRecorderService17vm_error_rotationEv(ptr noundef nonnull align 8 dereferenceable(48) %0) #1 align 2 {
  %2 = alloca ptr, align 8
  %3 = alloca ptr, align 8
  store ptr %0, ptr %2, align 8
  %4 = load ptr, ptr %2, align 8
  %5 = getelementptr inbounds %class.JfrRecorderService, ptr %4, i32 0, i32 1
  %6 = load ptr, ptr %5, align 8
  %7 = call noundef zeroext i1 @_ZNK16StreamWriterHostI13MallocAdapterILm1048576EE11JfrCHeapObjE8is_validEv(ptr noundef nonnull align 8 dereferenceable(76) %6)
  br i1 %7, label %9, label %8

8:                                                ; preds = %1
  call void @_ZN18JfrRecorderService14open_new_chunkEb(ptr noundef nonnull align 8 dereferenceable(48) %4, i1 noundef zeroext true)
  br label %9

9:                                                ; preds = %8, %1
  %10 = getelementptr inbounds %class.JfrRecorderService, ptr %4, i32 0, i32 1
  %11 = load ptr, ptr %10, align 8
  %12 = call noundef zeroext i1 @_ZNK16StreamWriterHostI13MallocAdapterILm1048576EE11JfrCHeapObjE8is_validEv(ptr noundef nonnull align 8 dereferenceable(76) %11)
  br i1 %12, label %13, label %34

13:                                               ; preds = %9
  %14 = call noundef ptr @_ZN6Thread7currentEv()
  store ptr %14, ptr %3, align 8
  %15 = getelementptr inbounds %class.JfrRecorderService, ptr %4, i32 0, i32 4
  %16 = load ptr, ptr %15, align 8
  %17 = load ptr, ptr %3, align 8
  %18 = call noundef ptr @_ZNK6Thread16jfr_thread_localEv(ptr noundef nonnull align 8 dereferenceable(888) %17)
  %19 = call noundef ptr @_ZNK14JfrThreadLocal13native_bufferEv(ptr noundef nonnull align 8 dereferenceable(195) %18)
  %20 = load ptr, ptr %3, align 8
  %21 = call noundef zeroext i1 @_ZN10JfrStorage20flush_regular_bufferEP9JfrBufferP6Thread(ptr noundef nonnull align 8 dereferenceable(48) %16, ptr noundef %19, ptr noundef %20)
  %22 = getelementptr inbounds %class.JfrRecorderService, ptr %4, i32 0, i32 1
  %23 = load ptr, ptr %22, align 8
  call void @_ZN14JfrChunkWriter16mark_chunk_finalEv(ptr noundef nonnull align 8 dereferenceable(88) %23)
  %24 = getelementptr inbounds %class.JfrRecorderService, ptr %4, i32 0, i32 1
  %25 = load ptr, ptr %24, align 8
  %26 = load ptr, ptr %3, align 8
  call void @_ZN21JfrDeprecationManager11write_edgesER14JfrChunkWriterP6Threadb(ptr noundef nonnull align 8 dereferenceable(88) %25, ptr noundef %26, i1 noundef zeroext true)
  call void @_ZN18JfrRecorderService12invoke_flushEv(ptr noundef nonnull align 8 dereferenceable(48) %4)
  %27 = getelementptr inbounds %class.JfrRecorderService, ptr %4, i32 0, i32 1
  %28 = load ptr, ptr %27, align 8
  call void @_ZN14JfrChunkWriter14set_time_stampEv(ptr noundef nonnull align 8 dereferenceable(88) %28)
  %29 = getelementptr inbounds %class.JfrRecorderService, ptr %4, i32 0, i32 2
  %30 = load ptr, ptr %29, align 8
  %31 = call noundef i64 @_ZN13JfrRepository11close_chunkEv(ptr noundef nonnull align 8 dereferenceable(16) %30)
  %32 = getelementptr inbounds %class.JfrRecorderService, ptr %4, i32 0, i32 2
  %33 = load ptr, ptr %32, align 8
  call void @_ZN13JfrRepository11on_vm_errorEv(ptr noundef nonnull align 8 dereferenceable(16) %33)
  br label %34

34:                                               ; preds = %13, %9
  ret void
}