; Function Attrs: mustprogress nounwind uwtable
define hidden void @_ZN18JfrRecorderService17vm_error_rotationEv(ptr nocapture noundef nonnull readonly align 8 dereferenceable(48) %0) local_unnamed_addr #0 align 2 {
  %2 = getelementptr inbounds i8, ptr %0, i64 8
  %3 = load ptr, ptr %2, align 8
  %4 = getelementptr inbounds i8, ptr %3, i64 72
  %5 = load i32, ptr %4, align 8
  %.not = icmp eq i32 %5, -1
  br i1 %.not, label %6, label %_ZN18JfrRecorderService14open_new_chunkEb.exit

6:                                                ; preds = %1
  tail call void @_ZN16JfrChunkRotation11on_rotationEv() #14
  %7 = getelementptr inbounds i8, ptr %0, i64 16
  %8 = load ptr, ptr %7, align 8
  %9 = tail call noundef zeroext i1 @_ZN13JfrRepository10open_chunkEb(ptr noundef nonnull align 8 dereferenceable(16) %8, i1 noundef zeroext true) #14
  %10 = tail call noundef nonnull align 8 dereferenceable(49) ptr @_ZN10JfrStorage7controlEv() #14
  tail call void @_ZN17JfrStorageControl11set_to_diskEb(ptr noundef nonnull align 8 dereferenceable(49) %10, i1 noundef zeroext %9) #14
  br i1 %9, label %11, label %_ZN18JfrRecorderService14open_new_chunkEb.exit

11:                                               ; preds = %6
  %12 = load ptr, ptr %0, align 8
  %13 = tail call noundef i64 @_ZN20JfrCheckpointManager33write_static_type_set_and_threadsEv(ptr noundef nonnull align 8 dereferenceable(32) %12) #14
  br label %_ZN18JfrRecorderService14open_new_chunkEb.exit

_ZN18JfrRecorderService14open_new_chunkEb.exit:   ; preds = %11, %6, %1
  %14 = load ptr, ptr %2, align 8
  %15 = getelementptr inbounds i8, ptr %14, i64 72
  %16 = load i32, ptr %15, align 8
  %.not4 = icmp eq i32 %16, -1
  br i1 %.not4, label %36, label %17

17:                                               ; preds = %_ZN18JfrRecorderService14open_new_chunkEb.exit
  %18 = tail call align 8 ptr @llvm.threadlocal.address.p0(ptr align 8 @_ZN6Thread12_thr_currentE)
  %19 = load ptr, ptr %18, align 8
  %20 = getelementptr inbounds i8, ptr %0, i64 32
  %21 = load ptr, ptr %20, align 8
  %22 = getelementptr inbounds i8, ptr %19, i64 600
  %23 = load ptr, ptr %22, align 8
  %.not.i = icmp eq ptr %23, null
  br i1 %.not.i, label %24, label %_ZNK14JfrThreadLocal13native_bufferEv.exit

24:                                               ; preds = %17
  %25 = getelementptr inbounds i8, ptr %19, i64 584
  %26 = tail call noundef ptr @_ZNK14JfrThreadLocal21install_native_bufferEv(ptr noundef nonnull align 8 dereferenceable(195) %25) #14
  br label %_ZNK14JfrThreadLocal13native_bufferEv.exit

_ZNK14JfrThreadLocal13native_bufferEv.exit:       ; preds = %17, %24
  %27 = phi ptr [ %26, %24 ], [ %23, %17 ]
  %28 = tail call noundef zeroext i1 @_ZN10JfrStorage20flush_regular_bufferEP9JfrBufferP6Thread(ptr noundef nonnull align 8 dereferenceable(48) %21, ptr noundef %27, ptr noundef nonnull %19) #14
  %29 = load ptr, ptr %2, align 8
  tail call void @_ZN14JfrChunkWriter16mark_chunk_finalEv(ptr noundef nonnull align 8 dereferenceable(88) %29) #14
  %30 = load ptr, ptr %2, align 8
  tail call void @_ZN21JfrDeprecationManager11write_edgesER14JfrChunkWriterP6Threadb(ptr noundef nonnull align 8 dereferenceable(88) %30, ptr noundef nonnull %19, i1 noundef zeroext true) #14
  tail call void @_ZN18JfrRecorderService12invoke_flushEv(ptr noundef nonnull align 8 dereferenceable(48) %0)
  %31 = load ptr, ptr %2, align 8
  tail call void @_ZN14JfrChunkWriter14set_time_stampEv(ptr noundef nonnull align 8 dereferenceable(88) %31) #14
  %32 = getelementptr inbounds i8, ptr %0, i64 16
  %33 = load ptr, ptr %32, align 8
  %34 = tail call noundef i64 @_ZN13JfrRepository11close_chunkEv(ptr noundef nonnull align 8 dereferenceable(16) %33) #14
  %35 = load ptr, ptr %32, align 8
  tail call void @_ZN13JfrRepository11on_vm_errorEv(ptr noundef nonnull align 8 dereferenceable(16) %35) #14
  br label %36

36:                                               ; preds = %_ZNK14JfrThreadLocal13native_bufferEv.exit, %_ZN18JfrRecorderService14open_new_chunkEb.exit
  ret void
}